target datalayout = "e-m:e-p270:32:32-p271:32:32-p272:64:64-i64:64-i128:128-f80:128-n8:16:32:64-S128"
target triple = "x86_64-pc-linux-gnu"

%struct.Gia_Man_t_ = type { ptr, ptr, i32, i32, i32, i32, ptr, ptr, i32, i32, i32, ptr, ptr, %struct.Vec_Int_t_, %struct.Vec_Int_t_, i32, i32, i32, %struct.Vec_Int_t_, ptr, ptr, ptr, i32, i32, i32, i32, ptr, ptr, ptr, ptr, ptr, i32, i32, ptr, i32, ptr, ptr, ptr, ptr, ptr, ptr, ptr, ptr, ptr, ptr, ptr, ptr, ptr, ptr, ptr, ptr, ptr, ptr, %struct.Vec_Int_t_, %struct.Vec_Int_t_, ptr, ptr, ptr, ptr, ptr, ptr, ptr, ptr, ptr, ptr, ptr, ptr, ptr, ptr, ptr, ptr, ptr, ptr, ptr, ptr, ptr, i32, float, float, ptr, ptr, i32, ptr, ptr, ptr, ptr, ptr, ptr, ptr, ptr, ptr, ptr, ptr, ptr, ptr, ptr, ptr, i64, i64, ptr, ptr, i32, i32, i32, i32, i32, i32, i32, i32, i32, i32, i32, i32, ptr, ptr, ptr, ptr, ptr, ptr, ptr, ptr, i32, i32, i32, ptr, i32, i32, ptr, ptr, ptr, ptr, ptr, ptr, i32, i32, ptr, %struct.Vec_Int_t_, %struct.Vec_Int_t_, %struct.Vec_Int_t_, ptr, ptr, ptr, i32, i32, i32, i32, ptr, ptr, ptr, ptr, ptr }
%struct.Vec_Int_t_ = type { i32, i32, ptr }
%struct.Gia_Obj_t_ = type <{ i64, i32 }>

@.str = private unnamed_addr constant [24 x i8] c"Object %d is dangling.\0A\00", align 1
@.str.1 = private unnamed_addr constant [32 x i8] c"There are no dangling objects.\0A\00", align 1

; Function Attrs: inlinehint nounwind uwtable
define internal i32 @Vec_IntEntry(ptr noundef %0, i32 noundef %1) #2 {
  %3 = alloca ptr, align 8
  %4 = alloca i32, align 4
  store ptr %0, ptr %3, align 8, !tbaa !77
  store i32 %1, ptr %4, align 4, !tbaa !26
  %5 = load ptr, ptr %3, align 8, !tbaa !77
  %6 = getelementptr inbounds nuw %struct.Vec_Int_t_, ptr %5, i32 0, i32 2
  %7 = load ptr, ptr %6, align 8, !tbaa !112
  %8 = load i32, ptr %4, align 4, !tbaa !26
  %9 = sext i32 %8 to i64
  %10 = getelementptr inbounds i32, ptr %7, i64 %9
  %11 = load i32, ptr %10, align 4, !tbaa !26
  ret i32 %11
}

; Function Attrs: inlinehint nounwind uwtable
define internal i32 @Gia_ObjIsAnd(ptr noundef %0) #2 {
  %2 = alloca ptr, align 8
  store ptr %0, ptr %2, align 8, !tbaa !42
  %3 = load ptr, ptr %2, align 8, !tbaa !42
  %4 = load i64, ptr %3, align 4
  %5 = lshr i64 %4, 31
  %6 = and i64 %5, 1
  %7 = trunc i64 %6 to i32
  %8 = icmp ne i32 %7, 0
  br i1 %8, label %15, label %9

9:                                                ; preds = %1
  %10 = load ptr, ptr %2, align 8, !tbaa !42
  %11 = load i64, ptr %10, align 4
  %12 = and i64 %11, 536870911
  %13 = trunc i64 %12 to i32
  %14 = icmp ne i32 %13, 536870911
  br label %15

15:                                               ; preds = %9, %1
  %16 = phi i1 [ false, %1 ], [ %14, %9 ]
  %17 = zext i1 %16 to i32
  ret i32 %17
}

; Function Attrs: inlinehint nounwind uwtable
define internal ptr @Gia_ManObj(ptr noundef %0, i32 noundef %1) #2 {
  %3 = alloca ptr, align 8
  %4 = alloca i32, align 4
  store ptr %0, ptr %3, align 8, !tbaa !3
  store i32 %1, ptr %4, align 4, !tbaa !26
  %5 = load ptr, ptr %3, align 8, !tbaa !3
  %6 = getelementptr inbounds nuw %struct.Gia_Man_t_, ptr %5, i32 0, i32 6
  %7 = load ptr, ptr %6, align 8, !tbaa !73
  %8 = load i32, ptr %4, align 4, !tbaa !26
  %9 = sext i32 %8 to i64
  %10 = getelementptr inbounds %struct.Gia_Obj_t_, ptr %7, i64 %9
  ret ptr %10
}

; Function Attrs: inlinehint nounwind uwtable
define internal ptr @Gia_ObjFanin0(ptr noundef %0) #2 {
  %2 = alloca ptr, align 8
  store ptr %0, ptr %2, align 8, !tbaa !42
  %3 = load ptr, ptr %2, align 8, !tbaa !42
  %4 = load ptr, ptr %2, align 8, !tbaa !42
  %5 = load i64, ptr %4, align 4
  %6 = and i64 %5, 536870911
  %7 = trunc i64 %6 to i32
  %8 = sext i32 %7 to i64
  %9 = sub i64 0, %8
  %10 = getelementptr inbounds %struct.Gia_Obj_t_, ptr %3, i64 %9
  ret ptr %10
}

; Function Attrs: inlinehint nounwind uwtable
define internal ptr @Gia_ManCo(ptr noundef %0, i32 noundef %1) #2 {
  %3 = alloca ptr, align 8
  %4 = alloca i32, align 4
  store ptr %0, ptr %3, align 8, !tbaa !3
  store i32 %1, ptr %4, align 4, !tbaa !26
  %5 = load ptr, ptr %3, align 8, !tbaa !3
  %6 = load ptr, ptr %3, align 8, !tbaa !3
  %7 = getelementptr inbounds nuw %struct.Gia_Man_t_, ptr %6, i32 0, i32 12
  %8 = load ptr, ptr %7, align 8, !tbaa !70
  %9 = load i32, ptr %4, align 4, !tbaa !26
  %10 = call i32 @Vec_IntEntry(ptr noundef %8, i32 noundef %9)
  %11 = call ptr @Gia_ManObj(ptr noundef %5, i32 noundef %10)
  ret ptr %11
}

; Function Attrs: inlinehint nounwind uwtable
define internal i32 @Vec_IntSize(ptr noundef %0) #2 {
  %2 = alloca ptr, align 8
  store ptr %0, ptr %2, align 8, !tbaa !77
  %3 = load ptr, ptr %2, align 8, !tbaa !77
  %4 = getelementptr inbounds nuw %struct.Vec_Int_t_, ptr %3, i32 0, i32 1
  %5 = load i32, ptr %4, align 4, !tbaa !78
  ret i32 %5
}

; Function Attrs: nounwind uwtable
define void @Gia_ManCheckChoices(ptr noundef %0) #0 {
  %2 = alloca ptr, align 8
  %3 = alloca ptr, align 8
  %4 = alloca i32, align 4
  %5 = alloca i32, align 4
  store ptr %0, ptr %2, align 8, !tbaa !3
  call void @llvm.lifetime.start.p0(i64 8, ptr %3) #12
  call void @llvm.lifetime.start.p0(i64 4, ptr %4) #12
  call void @llvm.lifetime.start.p0(i64 4, ptr %5) #12
  store i32 0, ptr %5, align 4, !tbaa !26
  %6 = load ptr, ptr %2, align 8, !tbaa !3
  call void @Gia_ManCleanPhase(ptr noundef %6)
  store i32 0, ptr %4, align 4, !tbaa !26
  br label %7

7:                                                ; preds = %25, %1
  %8 = load i32, ptr %4, align 4, !tbaa !26
  %9 = load ptr, ptr %2, align 8, !tbaa !3
  %10 = getelementptr inbounds nuw %struct.Gia_Man_t_, ptr %9, i32 0, i32 12
  %11 = load ptr, ptr %10, align 8, !tbaa !70
  %12 = call i32 @Vec_IntSize(ptr noundef %11)
  %13 = icmp slt i32 %8, %12
  br i1 %13, label %14, label %19

14:                                               ; preds = %7
  %15 = load ptr, ptr %2, align 8, !tbaa !3
  %16 = load i32, ptr %4, align 4, !tbaa !26
  %17 = call ptr @Gia_ManCo(ptr noundef %15, i32 noundef %16)
  store ptr %17, ptr %3, align 8, !tbaa !42
  %18 = icmp ne ptr %17, null
  br label %19

19:                                               ; preds = %14, %7
  %20 = phi i1 [ false, %7 ], [ %18, %14 ]
  br i1 %20, label %21, label %28

21:                                               ; preds = %19
  %22 = load ptr, ptr %2, align 8, !tbaa !3
  %23 = load ptr, ptr %3, align 8, !tbaa !42
  %24 = call ptr @Gia_ObjFanin0(ptr noundef %23)
  call void @Gia_ManCheckChoices_rec(ptr noundef %22, ptr noundef %24)
  br label %25

25:                                               ; preds = %21
  %26 = load i32, ptr %4, align 4, !tbaa !26
  %27 = add nsw i32 %26, 1
  store i32 %27, ptr %4, align 4, !tbaa !26
  br label %7, !llvm.loop !74

28:                                               ; preds = %19
  store i32 0, ptr %4, align 4, !tbaa !26
  br label %29

29:                                               ; preds = %58, %28
  %30 = load i32, ptr %4, align 4, !tbaa !26
  %31 = load ptr, ptr %2, align 8, !tbaa !3
  %32 = getelementptr inbounds nuw %struct.Gia_Man_t_, ptr %31, i32 0, i32 4
  %33 = load i32, ptr %32, align 8, !tbaa !75
  %34 = icmp slt i32 %30, %33
  br i1 %34, label %35, label %40

35:                                               ; preds = %29
  %36 = load ptr, ptr %2, align 8, !tbaa !3
  %37 = load i32, ptr %4, align 4, !tbaa !26
  %38 = call ptr @Gia_ManObj(ptr noundef %36, i32 noundef %37)
  store ptr %38, ptr %3, align 8, !tbaa !42
  %39 = icmp ne ptr %38, null
  br label %40

40:                                               ; preds = %35, %29
  %41 = phi i1 [ false, %29 ], [ %39, %35 ]
  br i1 %41, label %42, label %61

42:                                               ; preds = %40
  %43 = load ptr, ptr %3, align 8, !tbaa !42
  %44 = call i32 @Gia_ObjIsAnd(ptr noundef %43)
  %45 = icmp ne i32 %44, 0
  br i1 %45, label %47, label %46

46:                                               ; preds = %42
  br label %57

47:                                               ; preds = %42
  %48 = load ptr, ptr %3, align 8, !tbaa !42
  %49 = load i64, ptr %48, align 4
  %50 = lshr i64 %49, 63
  %51 = trunc i64 %50 to i32
  %52 = icmp ne i32 %51, 0
  br i1 %52, label %56, label %53

53:                                               ; preds = %47
  %54 = load i32, ptr %4, align 4, !tbaa !26
  %55 = call i32 (ptr, ...) @printf(ptr noundef @.str, i32 noundef %54)
  store i32 1, ptr %5, align 4, !tbaa !26
  br label %56

56:                                               ; preds = %53, %47
  br label %57

57:                                               ; preds = %56, %46
  br label %58

58:                                               ; preds = %57
  %59 = load i32, ptr %4, align 4, !tbaa !26
  %60 = add nsw i32 %59, 1
  store i32 %60, ptr %4, align 4, !tbaa !26
  br label %29, !llvm.loop !76

61:                                               ; preds = %40
  %62 = load i32, ptr %5, align 4, !tbaa !26
  %63 = icmp ne i32 %62, 0
  br i1 %63, label %66, label %64

64:                                               ; preds = %61
  %65 = call i32 (ptr, ...) @printf(ptr noundef @.str.1)
  br label %66

66:                                               ; preds = %64, %61
  %67 = load ptr, ptr %2, align 8, !tbaa !3
  call void @Gia_ManCleanPhase(ptr noundef %67)
  call void @llvm.lifetime.end.p0(i64 4, ptr %5) #12
  call void @llvm.lifetime.end.p0(i64 4, ptr %4) #12
  call void @llvm.lifetime.end.p0(i64 8, ptr %3) #12
  ret void
}