; Function Attrs: nounwind uwtable
define void @Gia_ManCheckChoices(ptr noundef %0) local_unnamed_addr #0 {
  tail call void @Gia_ManCleanPhase(ptr noundef %0) #17
  %2 = getelementptr i8, ptr %0, i64 32
  %3 = getelementptr inbounds nuw i8, ptr %0, i64 72
  %4 = load ptr, ptr %3, align 8, !tbaa !70
  %5 = getelementptr i8, ptr %4, i64 4
  %.val31 = load i32, ptr %5, align 4, !tbaa !67
  %6 = icmp sgt i32 %.val31, 0
  br i1 %6, label %.lr.ph, label %.critedge

.lr.ph:                                           ; preds = %1, %8
  %indvars.iv = phi i64 [ %indvars.iv.next, %8 ], [ 0, %1 ]
  %7 = phi ptr [ %18, %8 ], [ %4, %1 ]
  %.val29 = load ptr, ptr %2, align 8, !tbaa !41
  %.not = icmp eq ptr %.val29, null
  br i1 %.not, label %.critedge, label %8

8:                                                ; preds = %.lr.ph
  %9 = getelementptr i8, ptr %7, i64 8
  %.val30.val = load ptr, ptr %9, align 8, !tbaa !69
  %10 = getelementptr inbounds nuw i32, ptr %.val30.val, i64 %indvars.iv
  %11 = load i32, ptr %10, align 4, !tbaa !40
  %12 = sext i32 %11 to i64
  %13 = getelementptr inbounds %struct.Gia_Obj_t_, ptr %.val29, i64 %12
  %14 = load i64, ptr %13, align 4
  %15 = and i64 %14, 536870911
  %16 = sub nsw i64 0, %15
  %17 = getelementptr inbounds %struct.Gia_Obj_t_, ptr %13, i64 %16
  tail call void @Gia_ManCheckChoices_rec(ptr noundef nonnull %0, ptr noundef nonnull %17)
  %indvars.iv.next = add nuw nsw i64 %indvars.iv, 1
  %18 = load ptr, ptr %3, align 8, !tbaa !70
  %19 = getelementptr i8, ptr %18, i64 4
  %.val = load i32, ptr %19, align 4, !tbaa !67
  %20 = sext i32 %.val to i64
  %21 = icmp slt i64 %indvars.iv.next, %20
  br i1 %21, label %.lr.ph, label %.critedge, !llvm.loop !72

.critedge:                                        ; preds = %.lr.ph, %8, %1
  %22 = getelementptr inbounds nuw i8, ptr %0, i64 24
  %23 = load i32, ptr %22, align 8, !tbaa !73
  %24 = icmp sgt i32 %23, 0
  br i1 %24, label %.lr.ph36, label %.critedge2.thread

.lr.ph36:                                         ; preds = %.critedge, %35
  %25 = phi i32 [ %36, %35 ], [ %23, %.critedge ]
  %indvars.iv40 = phi i64 [ %indvars.iv.next41, %35 ], [ 0, %.critedge ]
  %.035 = phi i32 [ %.1, %35 ], [ 0, %.critedge ]
  %.val27 = load ptr, ptr %2, align 8, !tbaa !41
  %.not23 = icmp eq ptr %.val27, null
  br i1 %.not23, label %.critedge2, label %26

26:                                               ; preds = %.lr.ph36
  %27 = getelementptr inbounds nuw %struct.Gia_Obj_t_, ptr %.val27, i64 %indvars.iv40
  %.val28 = load i64, ptr %27, align 4
  %28 = and i64 %.val28, 536870911
  %29 = icmp ne i64 %28, 536870911
  %30 = and i64 %.val28, -9223372034707292160
  %31 = icmp eq i64 %30, 0
  %or.cond = and i1 %31, %29
  br i1 %or.cond, label %32, label %35

32:                                               ; preds = %26
  %33 = trunc nuw nsw i64 %indvars.iv40 to i32
  %34 = tail call i32 (ptr, ...) @printf(ptr noundef nonnull dereferenceable(1) @.str, i32 noundef %33)
  %.pre = load i32, ptr %22, align 8, !tbaa !73
  br label %35

35:                                               ; preds = %26, %32
  %36 = phi i32 [ %.pre, %32 ], [ %25, %26 ]
  %.1 = phi i32 [ 1, %32 ], [ %.035, %26 ]
  %indvars.iv.next41 = add nuw nsw i64 %indvars.iv40, 1
  %37 = sext i32 %36 to i64
  %38 = icmp slt i64 %indvars.iv.next41, %37
  br i1 %38, label %.lr.ph36, label %.critedge2, !llvm.loop !74

.critedge2:                                       ; preds = %.lr.ph36, %35
  %.0.lcssa.ph = phi i32 [ %.035, %.lr.ph36 ], [ %.1, %35 ]
  %39 = icmp eq i32 %.0.lcssa.ph, 0
  br i1 %39, label %.critedge2.thread, label %40

.critedge2.thread:                                ; preds = %.critedge, %.critedge2
  %puts = tail call i32 @puts(ptr nonnull dereferenceable(1) @str)
  br label %40

40:                                               ; preds = %.critedge2.thread, %.critedge2
  tail call void @Gia_ManCleanPhase(ptr noundef nonnull %0) #17
  ret void
}